target datalayout = "e-m:e-p270:32:32-p271:32:32-p272:64:64-i64:64-i128:128-f80:128-n8:16:32:64-S128"
target triple = "x86_64-pc-linux-gnu"

%struct.redisServer = type { i32, i64, ptr, ptr, ptr, i32, i32, i32, i32, i32, ptr, ptr, ptr, ptr, ptr, i32, i32, i32, i32, i64, i32, i32, i32, i32, ptr, i32, i32, [41 x i8], i32, i64, i32, i32, i32, ptr, ptr, i32, i32, i64, ptr, ptr, ptr, ptr, [2 x i32], i32, i32, i32, i32, i32, i32, [16 x ptr], i32, ptr, ptr, i32, [8 x %struct.connListener], i32, %struct.connListener, ptr, ptr, ptr, ptr, ptr, ptr, ptr, ptr, ptr, ptr, i32, ptr, i32, ptr, [3 x %struct.pause_event], [256 x i8], ptr, i64, i32, i32, [128 x i32], i32, i32, i64, i32, i32, i32, i32, i32, i64, i64, i64, i64, i64, i64, i64, i64, i64, i64, double, i64, i64, i64, i64, i64, i64, i64, i64, i64, i64, i64, i64, i64, i64, i64, i64, i64, i64, i64, i64, i64, double, i64, i64, i64, i64, i64, ptr, i64, i64, i64, %struct.malloc_stats, i64, i64, i64, i64, i64, i64, i64, i64, i64, i64, i64, i64, double, [4 x i64], i64, i64, i64, i64, [128 x i64], [128 x i64], i64, i64, [7 x %struct.anon], i64, i64, i64, i64, i64, i64, [4 x %struct.durationStats], i32, i32, i32, i32, i32, i32, i32, i32, i32, i32, i32, i32, i64, i32, i32, i32, i32, i64, i64, i32, i32, i32, i32, i32, ptr, [3 x %struct.clientBufferLimitsConfig], i32, i32, i32, ptr, i32, i32, i32, i32, i32, i32, ptr, ptr, i32, i32, i64, i64, i64, i64, i64, i32, i32, ptr, i32, i32, i64, i64, i64, i64, i64, i32, i32, i64, i32, i32, i32, i32, i32, i32, i32, i32, ptr, i32, i64, i64, i64, i64, i32, ptr, i32, ptr, i32, i32, i32, i64, i64, i64, i64, i32, i32, i32, i32, i32, i32, ptr, i32, i32, ptr, i32, i32, i32, [2 x i32], i32, %struct.redisOpArray, i32, ptr, i32, ptr, i32, i32, i32, i32, i32, i32, i32, [41 x i8], [41 x i8], i64, i64, i64, i64, i32, i32, ptr, i64, i64, %struct.replDataBuf, i64, i64, i32, i32, i32, i32, i32, i32, i32, i32, i32, i64, ptr, i64, ptr, ptr, ptr, i32, i32, ptr, ptr, i32, i32, i32, i64, i64, i64, i64, ptr, ptr, i32, ptr, i64, i32, i32, i32, i64, i32, i32, i32, i32, ptr, i32, i32, [41 x i8], i64, i32, ptr, i32, i32, i64, i64, i32, i32, i32, i32, i32, i64, [3 x i32], i32, i32, i32, [10 x i32], ptr, ptr, i32, i64, ptr, ptr, i32, i32, i32, i32, i64, i64, i64, i64, i64, i64, i64, i64, i64, i64, i32, i32, i64, i64, i32, i64, i64, i64, i64, i64, ptr, ptr, i32, ptr, i32, i32, i32, i32, i64, i64, ptr, ptr, i32, i32, i32, i32, i32, ptr, ptr, ptr, i32, i32, i32, i32, i32, i32, i32, i64, i32, i32, i64, i32, i32, i32, i32, i32, i32, i32, i64, ptr, ptr, i64, ptr, i32, %struct.aclInfo, i32, i64, i32, i32, i32, %struct.redisTLSContextConfig, ptr, ptr, ptr, ptr, ptr, i64, i32, ptr, i32, i32, i32, i64, i32, ptr }
%struct.connListener = type { [16 x i32], i32, ptr, i32, i32, ptr, ptr }
%struct.pause_event = type { i32, i64 }
%struct.malloc_stats = type { i64, i64, i64, i64, i64, i64, i64, i64, i64, i64, i64 }
%struct.anon = type { i64, i64, [16 x i64], i32 }
%struct.durationStats = type { i64, i64, i64 }
%struct.clientBufferLimitsConfig = type { i64, i64, i64 }
%struct.redisOpArray = type { ptr, i32, i32 }
%struct.replDataBuf = type { ptr, i64, i64, i64, i64 }
%struct.aclInfo = type { i64, i64, i64, i64 }
%struct.redisTLSContextConfig = type { ptr, ptr, ptr, ptr, ptr, ptr, ptr, ptr, ptr, ptr, ptr, ptr, i32, i32, i32, i32 }
%struct.sharedObjectsStruct = type { ptr, ptr, ptr, ptr, ptr, ptr, ptr, ptr, [4 x ptr], [4 x ptr], [4 x ptr], [4 x ptr], ptr, ptr, ptr, ptr, ptr, ptr, ptr, ptr, ptr, ptr, ptr, ptr, ptr, ptr, ptr, ptr, ptr, ptr, ptr, ptr, ptr, ptr, ptr, ptr, ptr, ptr, ptr, ptr, ptr, ptr, ptr, ptr, ptr, ptr, ptr, ptr, ptr, ptr, ptr, ptr, ptr, ptr, ptr, ptr, ptr, ptr, ptr, ptr, ptr, ptr, ptr, ptr, ptr, ptr, ptr, ptr, ptr, ptr, ptr, ptr, ptr, ptr, ptr, ptr, ptr, ptr, ptr, ptr, ptr, ptr, ptr, ptr, ptr, ptr, ptr, ptr, [10 x ptr], [10000 x ptr], [32 x ptr], [32 x ptr], [32 x ptr], [32 x ptr], ptr, ptr }
%struct.client = type { i64, i64, ptr, i8, i8, i8, i8, i32, ptr, ptr, ptr, ptr, ptr, i64, i64, i32, ptr, i32, i32, ptr, i64, ptr, ptr, ptr, ptr, ptr, i32, i32, i64, ptr, i64, ptr, i64, i64, i64, i32, ptr, i64, i64, i32, i32, i32, i32, i64, i64, ptr, i64, i64, i64, i64, i64, i64, i64, i64, [41 x i8], i32, ptr, i32, i32, i64, %struct.multiState, %struct.blockingState, i64, ptr, ptr, ptr, ptr, ptr, ptr, ptr, ptr, ptr, ptr, ptr, ptr, ptr, ptr, i64, ptr, i64, i32, ptr, ptr, ptr, i64, %struct.listNode, i64, i64, i32, i64, ptr }
%struct.multiState = type { ptr, i32, i32, i32, i64, i32 }
%struct.blockingState = type { i32, i64, i32, ptr, i32, i32, i64, ptr, ptr, i64 }
%struct.listNode = type { ptr, ptr, ptr }
%struct.redisObject = type { i32, i32, ptr }
%struct.rdbSaveInfo = type { i32, i32, [41 x i8], i64 }
%struct.redisDb = type { ptr, ptr, ptr, ptr, ptr, ptr, ptr, i32, i64, i64, ptr }

@server = external global %struct.redisServer, align 8
@shared = external global %struct.sharedObjectsStruct, align 8
@.str.157 = private unnamed_addr constant [36 x i8] c"Background save already in progress\00", align 1
@.str.158 = private unnamed_addr constant [9 x i8] c"schedule\00", align 1
@.str.159 = private unnamed_addr constant [28 x i8] c"Background saving scheduled\00", align 1
@.str.160 = private unnamed_addr constant [133 x i8] c"Another child process is active (AOF?): can't BGSAVE right now. Use BGSAVE SCHEDULE in order to schedule a BGSAVE whenever possible.\00", align 1
@.str.161 = private unnamed_addr constant [26 x i8] c"Background saving started\00", align 1
@__const.rdbPopulateSaveInfo.rsi_init = private unnamed_addr constant { i32, i32, [41 x i8], [7 x i8], i64 } { i32 -1, i32 0, [41 x i8] c"0000000000000000000000000000000000000000\00", [7 x i8] zeroinitializer, i64 -1 }, align 8

; Function Attrs: nounwind uwtable
define dso_local ptr @rdbPopulateSaveInfo(ptr noundef %0) #0 {
  %2 = alloca ptr, align 8
  %3 = alloca ptr, align 8
  %4 = alloca %struct.rdbSaveInfo, align 8
  %5 = alloca i32, align 4
  store ptr %0, ptr %3, align 8, !tbaa !179
  call void @llvm.lifetime.start.p0(i64 64, ptr %4) #15
  call void @llvm.memcpy.p0.p0.i64(ptr align 8 %4, ptr align 8 @__const.rdbPopulateSaveInfo.rsi_init, i64 64, i1 false)
  %6 = load ptr, ptr %3, align 8, !tbaa !179
  call void @llvm.memcpy.p0.p0.i64(ptr align 8 %6, ptr align 8 %4, i64 64, i1 false), !tbaa.struct !336
  %7 = load ptr, ptr getelementptr inbounds nuw (%struct.redisServer, ptr @server, i32 0, i32 297), align 8, !tbaa !282
  %8 = icmp ne ptr %7, null
  br i1 %8, label %23, label %9

9:                                                ; preds = %1
  %10 = load ptr, ptr getelementptr inbounds nuw (%struct.redisServer, ptr @server, i32 0, i32 277), align 8, !tbaa !295
  %11 = icmp ne ptr %10, null
  br i1 %11, label %12, label %23

12:                                               ; preds = %9
  %13 = load i32, ptr getelementptr inbounds nuw (%struct.redisServer, ptr @server, i32 0, i32 275), align 8, !tbaa !337
  %14 = icmp eq i32 %13, -1
  br i1 %14, label %15, label %16

15:                                               ; preds = %12
  br label %18

16:                                               ; preds = %12
  %17 = load i32, ptr getelementptr inbounds nuw (%struct.redisServer, ptr @server, i32 0, i32 275), align 8, !tbaa !337
  br label %18

18:                                               ; preds = %16, %15
  %19 = phi i32 [ 0, %15 ], [ %17, %16 ]
  %20 = load ptr, ptr %3, align 8, !tbaa !179
  %21 = getelementptr inbounds nuw %struct.rdbSaveInfo, ptr %20, i32 0, i32 0
  store i32 %19, ptr %21, align 8, !tbaa !181
  %22 = load ptr, ptr %3, align 8, !tbaa !179
  store ptr %22, ptr %2, align 8
  store i32 1, ptr %5, align 4
  br label %48

23:                                               ; preds = %9, %1
  %24 = load ptr, ptr getelementptr inbounds nuw (%struct.redisServer, ptr @server, i32 0, i32 300), align 8, !tbaa !338
  %25 = icmp ne ptr %24, null
  br i1 %25, label %26, label %35

26:                                               ; preds = %23
  %27 = load ptr, ptr getelementptr inbounds nuw (%struct.redisServer, ptr @server, i32 0, i32 300), align 8, !tbaa !338
  %28 = getelementptr inbounds nuw %struct.client, ptr %27, i32 0, i32 8
  %29 = load ptr, ptr %28, align 8, !tbaa !339
  %30 = getelementptr inbounds nuw %struct.redisDb, ptr %29, i32 0, i32 7
  %31 = load i32, ptr %30, align 8, !tbaa !294
  %32 = load ptr, ptr %3, align 8, !tbaa !179
  %33 = getelementptr inbounds nuw %struct.rdbSaveInfo, ptr %32, i32 0, i32 0
  store i32 %31, ptr %33, align 8, !tbaa !181
  %34 = load ptr, ptr %3, align 8, !tbaa !179
  store ptr %34, ptr %2, align 8
  store i32 1, ptr %5, align 4
  br label %48

35:                                               ; preds = %23
  %36 = load ptr, ptr getelementptr inbounds nuw (%struct.redisServer, ptr @server, i32 0, i32 301), align 8, !tbaa !340
  %37 = icmp ne ptr %36, null
  br i1 %37, label %38, label %47

38:                                               ; preds = %35
  %39 = load ptr, ptr getelementptr inbounds nuw (%struct.redisServer, ptr @server, i32 0, i32 301), align 8, !tbaa !340
  %40 = getelementptr inbounds nuw %struct.client, ptr %39, i32 0, i32 8
  %41 = load ptr, ptr %40, align 8, !tbaa !339
  %42 = getelementptr inbounds nuw %struct.redisDb, ptr %41, i32 0, i32 7
  %43 = load i32, ptr %42, align 8, !tbaa !294
  %44 = load ptr, ptr %3, align 8, !tbaa !179
  %45 = getelementptr inbounds nuw %struct.rdbSaveInfo, ptr %44, i32 0, i32 0
  store i32 %43, ptr %45, align 8, !tbaa !181
  %46 = load ptr, ptr %3, align 8, !tbaa !179
  store ptr %46, ptr %2, align 8
  store i32 1, ptr %5, align 4
  br label %48

47:                                               ; preds = %35
  store ptr null, ptr %2, align 8
  store i32 1, ptr %5, align 4
  br label %48

48:                                               ; preds = %47, %38, %26, %18
  call void @llvm.lifetime.end.p0(i64 64, ptr %4) #15
  %49 = load ptr, ptr %2, align 8
  ret ptr %49
}

; Function Attrs: nounwind uwtable
define dso_local void @bgsaveCommand(ptr noundef %0) #0 {
  %2 = alloca ptr, align 8
  %3 = alloca i32, align 4
  %4 = alloca i32, align 4
  %5 = alloca %struct.rdbSaveInfo, align 8
  %6 = alloca ptr, align 8
  store ptr %0, ptr %2, align 8, !tbaa !323
  call void @llvm.lifetime.start.p0(i64 4, ptr %3) #15
  store i32 0, ptr %3, align 4, !tbaa !5
  %7 = load ptr, ptr %2, align 8, !tbaa !323
  %8 = getelementptr inbounds nuw %struct.client, ptr %7, i32 0, i32 15
  %9 = load i32, ptr %8, align 8, !tbaa !341
  %10 = icmp sgt i32 %9, 1
  br i1 %10, label %11, label %31

11:                                               ; preds = %1
  %12 = load ptr, ptr %2, align 8, !tbaa !323
  %13 = getelementptr inbounds nuw %struct.client, ptr %12, i32 0, i32 15
  %14 = load i32, ptr %13, align 8, !tbaa !341
  %15 = icmp eq i32 %14, 2
  br i1 %15, label %16, label %27

16:                                               ; preds = %11
  %17 = load ptr, ptr %2, align 8, !tbaa !323
  %18 = getelementptr inbounds nuw %struct.client, ptr %17, i32 0, i32 16
  %19 = load ptr, ptr %18, align 8, !tbaa !342
  %20 = getelementptr inbounds ptr, ptr %19, i64 1
  %21 = load ptr, ptr %20, align 8, !tbaa !76
  %22 = getelementptr inbounds nuw %struct.redisObject, ptr %21, i32 0, i32 2
  %23 = load ptr, ptr %22, align 8, !tbaa !77
  %24 = call i32 @strcasecmp(ptr noundef %23, ptr noundef @.str.158) #18
  %25 = icmp ne i32 %24, 0
  br i1 %25, label %27, label %26

26:                                               ; preds = %16
  store i32 1, ptr %3, align 4, !tbaa !5
  br label %30

27:                                               ; preds = %16, %11
  %28 = load ptr, ptr %2, align 8, !tbaa !323
  %29 = load ptr, ptr getelementptr inbounds nuw (%struct.sharedObjectsStruct, ptr @shared, i32 0, i32 15), align 8, !tbaa !343
  call void @addReplyErrorObject(ptr noundef %28, ptr noundef %29)
  store i32 1, ptr %4, align 4
  br label %67

30:                                               ; preds = %26
  br label %31

31:                                               ; preds = %30, %1
  call void @llvm.lifetime.start.p0(i64 64, ptr %5) #15
  call void @llvm.lifetime.start.p0(i64 8, ptr %6) #15
  %32 = call ptr @rdbPopulateSaveInfo(ptr noundef %5)
  store ptr %32, ptr %6, align 8, !tbaa !179
  %33 = load i32, ptr getelementptr inbounds nuw (%struct.redisServer, ptr @server, i32 0, i32 44), align 4, !tbaa !332
  %34 = icmp eq i32 %33, 1
  br i1 %34, label %35, label %37

35:                                               ; preds = %31
  %36 = load ptr, ptr %2, align 8, !tbaa !323
  call void @addReplyError(ptr noundef %36, ptr noundef @.str.157)
  br label %66

37:                                               ; preds = %31
  %38 = call i32 @hasActiveChildProcess()
  %39 = icmp ne i32 %38, 0
  br i1 %39, label %43, label %40

40:                                               ; preds = %37
  %41 = load i32, ptr getelementptr inbounds nuw (%struct.redisServer, ptr @server, i32 0, i32 31), align 4, !tbaa !344
  %42 = icmp ne i32 %41, 0
  br i1 %42, label %43, label %54

43:                                               ; preds = %40, %37
  %44 = load i32, ptr %3, align 4, !tbaa !5
  %45 = icmp ne i32 %44, 0
  br i1 %45, label %49, label %46

46:                                               ; preds = %43
  %47 = load i32, ptr getelementptr inbounds nuw (%struct.redisServer, ptr @server, i32 0, i32 31), align 4, !tbaa !344
  %48 = icmp ne i32 %47, 0
  br i1 %48, label %49, label %51

49:                                               ; preds = %46, %43
  store i32 1, ptr getelementptr inbounds nuw (%struct.redisServer, ptr @server, i32 0, i32 242), align 8, !tbaa !345
  %50 = load ptr, ptr %2, align 8, !tbaa !323
  call void @addReplyStatus(ptr noundef %50, ptr noundef @.str.159)
  br label %53

51:                                               ; preds = %46
  %52 = load ptr, ptr %2, align 8, !tbaa !323
  call void @addReplyError(ptr noundef %52, ptr noundef @.str.160)
  br label %53

53:                                               ; preds = %51, %49
  br label %65

54:                                               ; preds = %40
  %55 = load ptr, ptr getelementptr inbounds nuw (%struct.redisServer, ptr @server, i32 0, i32 234), align 8, !tbaa !333
  %56 = load ptr, ptr %6, align 8, !tbaa !179
  %57 = call i32 @rdbSaveBackground(i32 noundef 0, ptr noundef %55, ptr noundef %56, i32 noundef 0)
  %58 = icmp eq i32 %57, 0
  br i1 %58, label %59, label %61

59:                                               ; preds = %54
  %60 = load ptr, ptr %2, align 8, !tbaa !323
  call void @addReplyStatus(ptr noundef %60, ptr noundef @.str.161)
  br label %64

61:                                               ; preds = %54
  %62 = load ptr, ptr %2, align 8, !tbaa !323
  %63 = load ptr, ptr getelementptr inbounds nuw (%struct.sharedObjectsStruct, ptr @shared, i32 0, i32 1), align 8, !tbaa !335
  call void @addReplyErrorObject(ptr noundef %62, ptr noundef %63)
  br label %64

64:                                               ; preds = %61, %59
  br label %65

65:                                               ; preds = %64, %53
  br label %66

66:                                               ; preds = %65, %35
  call void @llvm.lifetime.end.p0(i64 8, ptr %6) #15
  call void @llvm.lifetime.end.p0(i64 64, ptr %5) #15
  store i32 0, ptr %4, align 4
  br label %67

67:                                               ; preds = %66, %27
  call void @llvm.lifetime.end.p0(i64 4, ptr %3) #15
  %68 = load i32, ptr %4, align 4
  switch i32 %68, label %70 [
    i32 0, label %69
    i32 1, label %69
  ]

69:                                               ; preds = %67, %67
  ret void

70:                                               ; preds = %67
  unreachable
}