; Function Attrs: nounwind uwtable
define dso_local void @bgsaveCommand(ptr noundef %0) local_unnamed_addr #0 {
  %2 = alloca %struct.rdbSaveInfo, align 8
  %3 = getelementptr inbounds nuw i8, ptr %0, i64 88
  %4 = load i32, ptr %3, align 8, !tbaa !281
  %5 = icmp sgt i32 %4, 1
  br i1 %5, label %6, label %18

6:                                                ; preds = %1
  %7 = icmp eq i32 %4, 2
  br i1 %7, label %8, label %16

8:                                                ; preds = %6
  %9 = getelementptr inbounds nuw i8, ptr %0, i64 96
  %10 = load ptr, ptr %9, align 8, !tbaa !282
  %11 = getelementptr inbounds nuw i8, ptr %10, i64 8
  %12 = load ptr, ptr %11, align 8, !tbaa !246
  %13 = getelementptr inbounds nuw i8, ptr %12, i64 8
  %14 = load ptr, ptr %13, align 8, !tbaa !65
  %15 = tail call i32 @strcasecmp(ptr noundef %14, ptr noundef nonnull @.str.158) #27
  %.not = icmp eq i32 %15, 0
  br i1 %.not, label %18, label %16

16:                                               ; preds = %8, %6
  %17 = load ptr, ptr getelementptr inbounds nuw (i8, ptr @shared, i64 216), align 8, !tbaa !283
  tail call void @addReplyErrorObject(ptr noundef nonnull %0, ptr noundef %17) #23
  br label %60

18:                                               ; preds = %8, %1
  call void @llvm.lifetime.start.p0(i64 64, ptr nonnull %2) #23
  call void @llvm.memcpy.p0.p0.i64(ptr noundef nonnull align 8 dereferenceable(64) %2, ptr noundef nonnull align 8 dereferenceable(64) @__const.rdbPopulateSaveInfo.rsi_init, i64 64, i1 false), !tbaa.struct !272
  %19 = load ptr, ptr getelementptr inbounds nuw (i8, ptr @server, i64 7264), align 8, !tbaa !231
  %20 = icmp eq ptr %19, null
  %21 = load ptr, ptr getelementptr inbounds nuw (i8, ptr @server, i64 7104), align 8
  %22 = icmp ne ptr %21, null
  %or.cond.i = select i1 %20, i1 %22, i1 false
  br i1 %or.cond.i, label %23, label %27

23:                                               ; preds = %18
  %24 = load i32, ptr getelementptr inbounds nuw (i8, ptr @server, i64 7096), align 8, !tbaa !273
  %25 = icmp eq i32 %24, -1
  %26 = select i1 %25, i32 0, i32 %24
  br label %.sink.split.i

27:                                               ; preds = %18
  %28 = load ptr, ptr getelementptr inbounds nuw (i8, ptr @server, i64 7280), align 8, !tbaa !274
  %.not.i = icmp eq ptr %28, null
  br i1 %.not.i, label %34, label %29

29:                                               ; preds = %27
  %30 = getelementptr inbounds nuw i8, ptr %28, i64 32
  %31 = load ptr, ptr %30, align 8, !tbaa !275
  %32 = getelementptr inbounds nuw i8, ptr %31, i64 56
  %33 = load i32, ptr %32, align 8, !tbaa !240
  br label %.sink.split.i

34:                                               ; preds = %27
  %35 = load ptr, ptr getelementptr inbounds nuw (i8, ptr @server, i64 7288), align 8, !tbaa !276
  %.not11.i = icmp eq ptr %35, null
  br i1 %.not11.i, label %rdbPopulateSaveInfo.exit, label %36

36:                                               ; preds = %34
  %37 = getelementptr inbounds nuw i8, ptr %35, i64 32
  %38 = load ptr, ptr %37, align 8, !tbaa !275
  %39 = getelementptr inbounds nuw i8, ptr %38, i64 56
  %40 = load i32, ptr %39, align 8, !tbaa !240
  br label %.sink.split.i

.sink.split.i:                                    ; preds = %36, %29, %23
  %.sink.i = phi i32 [ %40, %36 ], [ %33, %29 ], [ %26, %23 ]
  store i32 %.sink.i, ptr %2, align 8, !tbaa !149
  br label %rdbPopulateSaveInfo.exit

rdbPopulateSaveInfo.exit:                         ; preds = %34, %.sink.split.i
  %.0.i = phi ptr [ null, %34 ], [ %2, %.sink.split.i ]
  %41 = load i32, ptr getelementptr inbounds nuw (i8, ptr @server, i64 308), align 4, !tbaa !271
  %42 = icmp eq i32 %41, 1
  br i1 %42, label %43, label %44

43:                                               ; preds = %rdbPopulateSaveInfo.exit
  tail call void @addReplyError(ptr noundef nonnull %0, ptr noundef nonnull @.str.157) #23
  br label %59

44:                                               ; preds = %rdbPopulateSaveInfo.exit
  %45 = tail call i32 @hasActiveChildProcess() #23
  %46 = icmp ne i32 %45, 0
  %47 = load i32, ptr getelementptr inbounds nuw (i8, ptr @server, i64 220), align 4
  %48 = icmp ne i32 %47, 0
  %or.cond = select i1 %46, i1 true, i1 %48
  br i1 %or.cond, label %49, label %52

49:                                               ; preds = %44
  %or.cond3 = select i1 %5, i1 true, i1 %48
  br i1 %or.cond3, label %50, label %51

50:                                               ; preds = %49
  store i32 1, ptr getelementptr inbounds nuw (i8, ptr @server, i64 6832), align 8, !tbaa !284
  tail call void @addReplyStatus(ptr noundef nonnull %0, ptr noundef nonnull @.str.159) #23
  br label %59

51:                                               ; preds = %49
  tail call void @addReplyError(ptr noundef nonnull %0, ptr noundef nonnull @.str.160) #23
  br label %59

52:                                               ; preds = %44
  %53 = load ptr, ptr getelementptr inbounds nuw (i8, ptr @server, i64 6776), align 8, !tbaa !277
  %54 = call i32 @rdbSaveBackground(i32 noundef 0, ptr noundef %53, ptr noundef %.0.i, i32 noundef 0)
  %55 = icmp eq i32 %54, 0
  br i1 %55, label %56, label %57

56:                                               ; preds = %52
  call void @addReplyStatus(ptr noundef nonnull %0, ptr noundef nonnull @.str.161) #23
  br label %59

57:                                               ; preds = %52
  %58 = load ptr, ptr getelementptr inbounds nuw (i8, ptr @shared, i64 8), align 8, !tbaa !280
  call void @addReplyErrorObject(ptr noundef nonnull %0, ptr noundef %58) #23
  br label %59

59:                                               ; preds = %51, %50, %57, %56, %43
  call void @llvm.lifetime.end.p0(i64 64, ptr nonnull %2) #23
  br label %60

60:                                               ; preds = %59, %16
  ret void
}